target datalayout = "e-m:e-p270:32:32-p271:32:32-p272:64:64-i64:64-i128:128-f80:128-n8:16:32:64-S128"
target triple = "x86_64-pc-linux-gnu"

; Function Attrs: alwaysinline nounwind willreturn memory(none) uwtable
define internal zeroext i16 @av_bswap16(i16 noundef zeroext %0) #6 {
  %2 = alloca i16, align 2
  store i16 %0, ptr %2, align 2, !tbaa !49
  %3 = load i16, ptr %2, align 2, !tbaa !49
  %4 = zext i16 %3 to i32
  %5 = ashr i32 %4, 8
  %6 = load i16, ptr %2, align 2, !tbaa !49
  %7 = zext i16 %6 to i32
  %8 = shl i32 %7, 8
  %9 = or i32 %5, %8
  %10 = trunc i32 %9 to i16
  store i16 %10, ptr %2, align 2, !tbaa !49
  %11 = load i16, ptr %2, align 2, !tbaa !49
  ret i16 %11
}

; Function Attrs: alwaysinline nounwind willreturn memory(none) uwtable
define internal zeroext i16 @av_clip_uint16_c(i32 noundef %0) #6 {
  %2 = alloca i16, align 2
  %3 = alloca i32, align 4
  store i32 %0, ptr %3, align 4, !tbaa !30
  %4 = load i32, ptr %3, align 4, !tbaa !30
  %5 = and i32 %4, -65536
  %6 = icmp ne i32 %5, 0
  br i1 %6, label %7, label %12

7:                                                ; preds = %1
  %8 = load i32, ptr %3, align 4, !tbaa !30
  %9 = xor i32 %8, -1
  %10 = ashr i32 %9, 31
  %11 = trunc i32 %10 to i16
  store i16 %11, ptr %2, align 2
  br label %15

12:                                               ; preds = %1
  %13 = load i32, ptr %3, align 4, !tbaa !30
  %14 = trunc i32 %13 to i16
  store i16 %14, ptr %2, align 2
  br label %15

15:                                               ; preds = %12, %7
  %16 = load i16, ptr %2, align 2
  ret i16 %16
}

; Function Attrs: alwaysinline nounwind uwtable
define internal void @yuv2ya16_2_c_template(ptr noundef %0, ptr noundef %1, ptr noundef %2, ptr noundef %3, ptr noundef %4, ptr noundef %5, i32 noundef %6, i32 noundef %7, i32 noundef %8, i32 noundef %9, i32 noundef %10, i32 noundef %11, i32 noundef %12, i32 noundef %13) #3 {
  %15 = alloca ptr, align 8
  %16 = alloca ptr, align 8
  %17 = alloca ptr, align 8
  %18 = alloca ptr, align 8
  %19 = alloca ptr, align 8
  %20 = alloca ptr, align 8
  %21 = alloca i32, align 4
  %22 = alloca i32, align 4
  %23 = alloca i32, align 4
  %24 = alloca i32, align 4
  %25 = alloca i32, align 4
  %26 = alloca i32, align 4
  %27 = alloca i32, align 4
  %28 = alloca i32, align 4
  %29 = alloca i32, align 4
  %30 = alloca ptr, align 8
  %31 = alloca ptr, align 8
  %32 = alloca ptr, align 8
  %33 = alloca ptr, align 8
  %34 = alloca i32, align 4
  %35 = alloca i32, align 4
  %36 = alloca i32, align 4
  %37 = alloca i32, align 4
  store ptr %0, ptr %15, align 8, !tbaa !4
  store ptr %1, ptr %16, align 8, !tbaa !59
  store ptr %2, ptr %17, align 8, !tbaa !59
  store ptr %3, ptr %18, align 8, !tbaa !59
  store ptr %4, ptr %19, align 8, !tbaa !59
  store ptr %5, ptr %20, align 8, !tbaa !45
  store i32 %6, ptr %21, align 4, !tbaa !30
  store i32 %7, ptr %22, align 4, !tbaa !30
  store i32 %8, ptr %23, align 4, !tbaa !30
  store i32 %9, ptr %24, align 4, !tbaa !30
  store i32 %10, ptr %25, align 4, !tbaa !30
  store i32 %11, ptr %26, align 4, !tbaa !30
  store i32 %12, ptr %27, align 4, !tbaa !30
  store i32 %13, ptr %28, align 4, !tbaa !30
  call void @llvm.lifetime.start.p0(i64 4, ptr %29) #8
  %38 = load ptr, ptr %19, align 8, !tbaa !59
  %39 = icmp ne ptr %38, null
  br i1 %39, label %40, label %50

40:                                               ; preds = %14
  %41 = load ptr, ptr %19, align 8, !tbaa !59
  %42 = getelementptr inbounds ptr, ptr %41, i64 0
  %43 = load ptr, ptr %42, align 8, !tbaa !61
  %44 = icmp ne ptr %43, null
  br i1 %44, label %45, label %50

45:                                               ; preds = %40
  %46 = load ptr, ptr %19, align 8, !tbaa !59
  %47 = getelementptr inbounds ptr, ptr %46, i64 1
  %48 = load ptr, ptr %47, align 8, !tbaa !61
  %49 = icmp ne ptr %48, null
  br label %50

50:                                               ; preds = %45, %40, %14
  %51 = phi i1 [ false, %40 ], [ false, %14 ], [ %49, %45 ]
  %52 = zext i1 %51 to i32
  store i32 %52, ptr %29, align 4, !tbaa !30
  call void @llvm.lifetime.start.p0(i64 8, ptr %30) #8
  %53 = load ptr, ptr %16, align 8, !tbaa !59
  %54 = getelementptr inbounds ptr, ptr %53, i64 0
  %55 = load ptr, ptr %54, align 8, !tbaa !61
  store ptr %55, ptr %30, align 8, !tbaa !61
  call void @llvm.lifetime.start.p0(i64 8, ptr %31) #8
  %56 = load ptr, ptr %16, align 8, !tbaa !59
  %57 = getelementptr inbounds ptr, ptr %56, i64 1
  %58 = load ptr, ptr %57, align 8, !tbaa !61
  store ptr %58, ptr %31, align 8, !tbaa !61
  call void @llvm.lifetime.start.p0(i64 8, ptr %32) #8
  %59 = load i32, ptr %29, align 4, !tbaa !30
  %60 = icmp ne i32 %59, 0
  br i1 %60, label %61, label %65

61:                                               ; preds = %50
  %62 = load ptr, ptr %19, align 8, !tbaa !59
  %63 = getelementptr inbounds ptr, ptr %62, i64 0
  %64 = load ptr, ptr %63, align 8, !tbaa !61
  br label %66

65:                                               ; preds = %50
  br label %66

66:                                               ; preds = %65, %61
  %67 = phi ptr [ %64, %61 ], [ null, %65 ]
  store ptr %67, ptr %32, align 8, !tbaa !61
  call void @llvm.lifetime.start.p0(i64 8, ptr %33) #8
  %68 = load i32, ptr %29, align 4, !tbaa !30
  %69 = icmp ne i32 %68, 0
  br i1 %69, label %70, label %74

70:                                               ; preds = %66
  %71 = load ptr, ptr %19, align 8, !tbaa !59
  %72 = getelementptr inbounds ptr, ptr %71, i64 1
  %73 = load ptr, ptr %72, align 8, !tbaa !61
  br label %75

74:                                               ; preds = %66
  br label %75

75:                                               ; preds = %74, %70
  %76 = phi ptr [ %73, %70 ], [ null, %74 ]
  store ptr %76, ptr %33, align 8, !tbaa !61
  call void @llvm.lifetime.start.p0(i64 4, ptr %34) #8
  %77 = load i32, ptr %22, align 4, !tbaa !30
  %78 = sub nsw i32 4096, %77
  store i32 %78, ptr %34, align 4, !tbaa !30
  call void @llvm.lifetime.start.p0(i64 4, ptr %35) #8
  store i32 0, ptr %35, align 4, !tbaa !30
  br label %79

79:                                               ; preds = %180, %75
  %80 = load i32, ptr %35, align 4, !tbaa !30
  %81 = load i32, ptr %21, align 4, !tbaa !30
  %82 = icmp slt i32 %80, %81
  br i1 %82, label %83, label %183

83:                                               ; preds = %79
  call void @llvm.lifetime.start.p0(i64 4, ptr %36) #8
  %84 = load ptr, ptr %30, align 8, !tbaa !61
  %85 = load i32, ptr %35, align 4, !tbaa !30
  %86 = sext i32 %85 to i64
  %87 = getelementptr inbounds i32, ptr %84, i64 %86
  %88 = load i32, ptr %87, align 4, !tbaa !30
  %89 = load i32, ptr %34, align 4, !tbaa !30
  %90 = mul nsw i32 %88, %89
  %91 = load ptr, ptr %31, align 8, !tbaa !61
  %92 = load i32, ptr %35, align 4, !tbaa !30
  %93 = sext i32 %92 to i64
  %94 = getelementptr inbounds i32, ptr %91, i64 %93
  %95 = load i32, ptr %94, align 4, !tbaa !30
  %96 = load i32, ptr %22, align 4, !tbaa !30
  %97 = mul nsw i32 %95, %96
  %98 = add nsw i32 %90, %97
  %99 = ashr i32 %98, 15
  store i32 %99, ptr %36, align 4, !tbaa !30
  call void @llvm.lifetime.start.p0(i64 4, ptr %37) #8
  %100 = load i32, ptr %36, align 4, !tbaa !30
  %101 = call zeroext i16 @av_clip_uint16_c(i32 noundef %100) #10
  %102 = zext i16 %101 to i32
  store i32 %102, ptr %36, align 4, !tbaa !30
  %103 = load i32, ptr %29, align 4, !tbaa !30
  %104 = icmp ne i32 %103, 0
  br i1 %104, label %105, label %125

105:                                              ; preds = %83
  %106 = load ptr, ptr %32, align 8, !tbaa !61
  %107 = load i32, ptr %35, align 4, !tbaa !30
  %108 = sext i32 %107 to i64
  %109 = getelementptr inbounds i32, ptr %106, i64 %108
  %110 = load i32, ptr %109, align 4, !tbaa !30
  %111 = load i32, ptr %34, align 4, !tbaa !30
  %112 = mul nsw i32 %110, %111
  %113 = load ptr, ptr %33, align 8, !tbaa !61
  %114 = load i32, ptr %35, align 4, !tbaa !30
  %115 = sext i32 %114 to i64
  %116 = getelementptr inbounds i32, ptr %113, i64 %115
  %117 = load i32, ptr %116, align 4, !tbaa !30
  %118 = load i32, ptr %22, align 4, !tbaa !30
  %119 = mul nsw i32 %117, %118
  %120 = add nsw i32 %112, %119
  %121 = ashr i32 %120, 15
  store i32 %121, ptr %37, align 4, !tbaa !30
  %122 = load i32, ptr %37, align 4, !tbaa !30
  %123 = call zeroext i16 @av_clip_uint16_c(i32 noundef %122) #10
  %124 = zext i16 %123 to i32
  store i32 %124, ptr %37, align 4, !tbaa !30
  br label %125

125:                                              ; preds = %105, %83
  %126 = load i32, ptr %28, align 4, !tbaa !30
  %127 = icmp ne i32 %126, 0
  br i1 %127, label %128, label %137

128:                                              ; preds = %125
  %129 = load i32, ptr %36, align 4, !tbaa !30
  %130 = trunc i32 %129 to i16
  %131 = call zeroext i16 @av_bswap16(i16 noundef zeroext %130) #10
  %132 = load ptr, ptr %20, align 8, !tbaa !45
  %133 = load i32, ptr %35, align 4, !tbaa !30
  %134 = mul nsw i32 2, %133
  %135 = sext i32 %134 to i64
  %136 = getelementptr inbounds i16, ptr %132, i64 %135
  store i16 %131, ptr %136, align 1, !tbaa !51
  br label %145

137:                                              ; preds = %125
  %138 = load i32, ptr %36, align 4, !tbaa !30
  %139 = trunc i32 %138 to i16
  %140 = load ptr, ptr %20, align 8, !tbaa !45
  %141 = load i32, ptr %35, align 4, !tbaa !30
  %142 = mul nsw i32 2, %141
  %143 = sext i32 %142 to i64
  %144 = getelementptr inbounds i16, ptr %140, i64 %143
  store i16 %139, ptr %144, align 1, !tbaa !51
  br label %145

145:                                              ; preds = %137, %128
  %146 = load i32, ptr %28, align 4, !tbaa !30
  %147 = icmp ne i32 %146, 0
  br i1 %147, label %148, label %164

148:                                              ; preds = %145
  %149 = load i32, ptr %29, align 4, !tbaa !30
  %150 = icmp ne i32 %149, 0
  br i1 %150, label %151, label %153

151:                                              ; preds = %148
  %152 = load i32, ptr %37, align 4, !tbaa !30
  br label %154

153:                                              ; preds = %148
  br label %154

154:                                              ; preds = %153, %151
  %155 = phi i32 [ %152, %151 ], [ 65535, %153 ]
  %156 = trunc i32 %155 to i16
  %157 = call zeroext i16 @av_bswap16(i16 noundef zeroext %156) #10
  %158 = load ptr, ptr %20, align 8, !tbaa !45
  %159 = load i32, ptr %35, align 4, !tbaa !30
  %160 = mul nsw i32 2, %159
  %161 = add nsw i32 %160, 1
  %162 = sext i32 %161 to i64
  %163 = getelementptr inbounds i16, ptr %158, i64 %162
  store i16 %157, ptr %163, align 1, !tbaa !51
  br label %179

164:                                              ; preds = %145
  %165 = load i32, ptr %29, align 4, !tbaa !30
  %166 = icmp ne i32 %165, 0
  br i1 %166, label %167, label %169

167:                                              ; preds = %164
  %168 = load i32, ptr %37, align 4, !tbaa !30
  br label %170

169:                                              ; preds = %164
  br label %170

170:                                              ; preds = %169, %167
  %171 = phi i32 [ %168, %167 ], [ 65535, %169 ]
  %172 = trunc i32 %171 to i16
  %173 = load ptr, ptr %20, align 8, !tbaa !45
  %174 = load i32, ptr %35, align 4, !tbaa !30
  %175 = mul nsw i32 2, %174
  %176 = add nsw i32 %175, 1
  %177 = sext i32 %176 to i64
  %178 = getelementptr inbounds i16, ptr %173, i64 %177
  store i16 %172, ptr %178, align 1, !tbaa !51
  br label %179

179:                                              ; preds = %170, %154
  call void @llvm.lifetime.end.p0(i64 4, ptr %37) #8
  call void @llvm.lifetime.end.p0(i64 4, ptr %36) #8
  br label %180

180:                                              ; preds = %179
  %181 = load i32, ptr %35, align 4, !tbaa !30
  %182 = add nsw i32 %181, 1
  store i32 %182, ptr %35, align 4, !tbaa !30
  br label %79, !llvm.loop !172

183:                                              ; preds = %79
  call void @llvm.lifetime.end.p0(i64 4, ptr %35) #8
  call void @llvm.lifetime.end.p0(i64 4, ptr %34) #8
  call void @llvm.lifetime.end.p0(i64 8, ptr %33) #8
  call void @llvm.lifetime.end.p0(i64 8, ptr %32) #8
  call void @llvm.lifetime.end.p0(i64 8, ptr %31) #8
  call void @llvm.lifetime.end.p0(i64 8, ptr %30) #8
  call void @llvm.lifetime.end.p0(i64 4, ptr %29) #8
  ret void
}

; Function Attrs: nounwind uwtable
define internal void @yuv2ya16le_2_c(ptr noundef %0, ptr noundef %1, ptr noundef %2, ptr noundef %3, ptr noundef %4, ptr noundef %5, i32 noundef %6, i32 noundef %7, i32 noundef %8, i32 noundef %9) #4 {
  %11 = alloca ptr, align 8
  %12 = alloca ptr, align 8
  %13 = alloca ptr, align 8
  %14 = alloca ptr, align 8
  %15 = alloca ptr, align 8
  %16 = alloca ptr, align 8
  %17 = alloca i32, align 4
  %18 = alloca i32, align 4
  %19 = alloca i32, align 4
  %20 = alloca i32, align 4
  %21 = alloca ptr, align 8
  %22 = alloca ptr, align 8
  %23 = alloca ptr, align 8
  %24 = alloca ptr, align 8
  %25 = alloca ptr, align 8
  store ptr %0, ptr %11, align 8, !tbaa !4
  store ptr %1, ptr %12, align 8, !tbaa !47
  store ptr %2, ptr %13, align 8, !tbaa !47
  store ptr %3, ptr %14, align 8, !tbaa !47
  store ptr %4, ptr %15, align 8, !tbaa !47
  store ptr %5, ptr %16, align 8, !tbaa !46
  store i32 %6, ptr %17, align 4, !tbaa !30
  store i32 %7, ptr %18, align 4, !tbaa !30
  store i32 %8, ptr %19, align 4, !tbaa !30
  store i32 %9, ptr %20, align 4, !tbaa !30
  call void @llvm.lifetime.start.p0(i64 8, ptr %21) #8
  %26 = load ptr, ptr %12, align 8, !tbaa !47
  store ptr %26, ptr %21, align 8, !tbaa !59
  call void @llvm.lifetime.start.p0(i64 8, ptr %22) #8
  %27 = load ptr, ptr %13, align 8, !tbaa !47
  store ptr %27, ptr %22, align 8, !tbaa !59
  call void @llvm.lifetime.start.p0(i64 8, ptr %23) #8
  %28 = load ptr, ptr %14, align 8, !tbaa !47
  store ptr %28, ptr %23, align 8, !tbaa !59
  call void @llvm.lifetime.start.p0(i64 8, ptr %24) #8
  %29 = load ptr, ptr %15, align 8, !tbaa !47
  store ptr %29, ptr %24, align 8, !tbaa !59
  call void @llvm.lifetime.start.p0(i64 8, ptr %25) #8
  %30 = load ptr, ptr %16, align 8, !tbaa !46
  store ptr %30, ptr %25, align 8, !tbaa !45
  %31 = load ptr, ptr %11, align 8, !tbaa !4
  %32 = load ptr, ptr %21, align 8, !tbaa !59
  %33 = load ptr, ptr %22, align 8, !tbaa !59
  %34 = load ptr, ptr %23, align 8, !tbaa !59
  %35 = load ptr, ptr %24, align 8, !tbaa !59
  %36 = load ptr, ptr %25, align 8, !tbaa !45
  %37 = load i32, ptr %17, align 4, !tbaa !30
  %38 = load i32, ptr %18, align 4, !tbaa !30
  %39 = load i32, ptr %19, align 4, !tbaa !30
  %40 = load i32, ptr %20, align 4, !tbaa !30
  call void @yuv2ya16_2_c_template(ptr noundef %31, ptr noundef %32, ptr noundef %33, ptr noundef %34, ptr noundef %35, ptr noundef %36, i32 noundef %37, i32 noundef %38, i32 noundef %39, i32 noundef %40, i32 noundef 110, i32 noundef 1, i32 noundef 0, i32 noundef 0)
  call void @llvm.lifetime.end.p0(i64 8, ptr %25) #8
  call void @llvm.lifetime.end.p0(i64 8, ptr %24) #8
  call void @llvm.lifetime.end.p0(i64 8, ptr %23) #8
  call void @llvm.lifetime.end.p0(i64 8, ptr %22) #8
  call void @llvm.lifetime.end.p0(i64 8, ptr %21) #8
  ret void
}